; Function Attrs: mustprogress uwtable
define internal void @_ZN12_GLOBAL__N_14Impl15registerHandlerEPKN3dap8TypeInfoERKSt8functionIFvPKvPKNS1_5ErrorEEE(ptr noundef nonnull align 8 dereferenceable(844) %0, ptr noundef %1, ptr noundef nonnull align 8 dereferenceable(32) %2) unnamed_addr #0 align 2 personality ptr @__gxx_personality_v0 {
  %4 = alloca ptr, align 8
  %5 = alloca %"class.std::__cxx11::basic_string", align 8
  %6 = getelementptr inbounds i8, ptr %0, i64 144
  call void @llvm.lifetime.start.p0(i64 8, ptr nonnull %4)
  call void @llvm.lifetime.start.p0(i64 32, ptr nonnull %5)
  store ptr %1, ptr %4, align 8
  %7 = getelementptr inbounds i8, ptr %0, i64 504
  %8 = tail call noundef i32 @pthread_mutex_lock(ptr noundef nonnull %7) #22
  %.not.i.i.i.i = icmp eq i32 %8, 0
  br i1 %.not.i.i.i.i, label %_ZNSt11unique_lockISt5mutexEC2ERS0_.exit.i, label %9

9:                                                ; preds = %3
  tail call void @_ZSt20__throw_system_errori(i32 noundef %8) #26
  unreachable

_ZNSt11unique_lockISt5mutexEC2ERS0_.exit.i:       ; preds = %3
  %10 = getelementptr inbounds i8, ptr %0, i64 544
  %11 = invoke { ptr, i8 } @_ZNSt10_HashtableIPKN3dap8TypeInfoESt4pairIKS3_St8functionIFvPKvPKNS0_5ErrorEEEESaISE_ENSt8__detail10_Select1stESt8equal_toIS3_ESt4hashIS3_ENSG_18_Mod_range_hashingENSG_20_Default_ranged_hashENSG_20_Prime_rehash_policyENSG_17_Hashtable_traitsILb0ELb0ELb1EEEE10_M_emplaceIJRS3_RKSD_EEES4_INSG_14_Node_iteratorISE_Lb0ELb0EEEbESt17integral_constantIbLb1EEDpOT_(ptr noundef nonnull align 8 dereferenceable(56) %10, ptr noundef nonnull align 8 dereferenceable(8) %4, ptr noundef nonnull align 8 dereferenceable(32) %2)
          to label %_ZNSt13unordered_mapIPKN3dap8TypeInfoESt8functionIFvPKvPKNS0_5ErrorEEESt4hashIS3_ESt8equal_toIS3_ESaISt4pairIKS3_SB_EEE7emplaceIJRS3_RKSB_EEESG_INSt8__detail14_Node_iteratorISI_Lb0ELb0EEEbEDpOT_.exit.i unwind label %22

_ZNSt13unordered_mapIPKN3dap8TypeInfoESt8functionIFvPKvPKNS0_5ErrorEEESt4hashIS3_ESt8equal_toIS3_ESaISt4pairIKS3_SB_EEE7emplaceIJRS3_RKSB_EEESG_INSt8__detail14_Node_iteratorISI_Lb0ELb0EEEbEDpOT_.exit.i: ; preds = %_ZNSt11unique_lockISt5mutexEC2ERS0_.exit.i
  %12 = extractvalue { ptr, i8 } %11, 1
  %13 = and i8 %12, 1
  %.not.i = icmp eq i8 %13, 0
  br i1 %.not.i, label %14, label %_ZN12_GLOBAL__N_14Impl13EventHandlers3putEPKN3dap8TypeInfoERKSt8functionIFvPKvPKNS2_5ErrorEEE.exit

14:                                               ; preds = %_ZNSt13unordered_mapIPKN3dap8TypeInfoESt8functionIFvPKvPKNS0_5ErrorEEESt4hashIS3_ESt8equal_toIS3_ESaISt4pairIKS3_SB_EEE7emplaceIJRS3_RKSB_EEESG_INSt8__detail14_Node_iteratorISI_Lb0ELb0EEEbEDpOT_.exit.i
  %15 = load ptr, ptr %4, align 8
  %16 = load ptr, ptr %15, align 8
  %17 = getelementptr inbounds i8, ptr %16, i64 16
  %18 = load ptr, ptr %17, align 8
  invoke void %18(ptr dead_on_unwind nonnull writable sret(%"class.std::__cxx11::basic_string") align 8 %5, ptr noundef nonnull align 8 dereferenceable(8) %15)
          to label %19 unwind label %22

19:                                               ; preds = %14
  %20 = call noundef ptr @_ZNKSt7__cxx1112basic_stringIcSt11char_traitsIcESaIcEE5c_strEv(ptr noundef nonnull align 8 dereferenceable(32) %5) #22
  invoke void (ptr, ptr, ...) @_ZN12_GLOBAL__N_14Impl13EventHandlers12errorfLockedEPKcz(ptr noundef nonnull align 8 dereferenceable(456) %6, ptr noundef nonnull @.str.32, ptr noundef %20)
          to label %21 unwind label %24

21:                                               ; preds = %19
  call void @_ZNSt7__cxx1112basic_stringIcSt11char_traitsIcESaIcEED1Ev(ptr noundef nonnull align 8 dereferenceable(32) %5) #22
  br label %_ZN12_GLOBAL__N_14Impl13EventHandlers3putEPKN3dap8TypeInfoERKSt8functionIFvPKvPKNS2_5ErrorEEE.exit

22:                                               ; preds = %14, %_ZNSt11unique_lockISt5mutexEC2ERS0_.exit.i
  %23 = landingpad { ptr, i32 }
          cleanup
  br label %_ZNSt11unique_lockISt5mutexED2Ev.exit8.i

24:                                               ; preds = %19
  %25 = landingpad { ptr, i32 }
          cleanup
  call void @_ZNSt7__cxx1112basic_stringIcSt11char_traitsIcESaIcEED1Ev(ptr noundef nonnull align 8 dereferenceable(32) %5) #22
  br label %_ZNSt11unique_lockISt5mutexED2Ev.exit8.i

_ZNSt11unique_lockISt5mutexED2Ev.exit8.i:         ; preds = %24, %22
  %.pn.i = phi { ptr, i32 } [ %25, %24 ], [ %23, %22 ]
  %26 = call noundef i32 @pthread_mutex_unlock(ptr noundef nonnull %7) #22
  resume { ptr, i32 } %.pn.i

_ZN12_GLOBAL__N_14Impl13EventHandlers3putEPKN3dap8TypeInfoERKSt8functionIFvPKvPKNS2_5ErrorEEE.exit: ; preds = %_ZNSt13unordered_mapIPKN3dap8TypeInfoESt8functionIFvPKvPKNS0_5ErrorEEESt4hashIS3_ESt8equal_toIS3_ESaISt4pairIKS3_SB_EEE7emplaceIJRS3_RKSB_EEESG_INSt8__detail14_Node_iteratorISI_Lb0ELb0EEEbEDpOT_.exit.i, %21
  %27 = call noundef i32 @pthread_mutex_unlock(ptr noundef nonnull %7) #22
  call void @llvm.lifetime.end.p0(i64 8, ptr nonnull %4)
  call void @llvm.lifetime.end.p0(i64 32, ptr nonnull %5)
  ret void
}